target datalayout = "e-m:e-p270:32:32-p271:32:32-p272:64:64-i64:64-i128:128-f80:128-n8:16:32:64-S128"
target triple = "x86_64-pc-linux-gnu"

@under_uid_switch = internal global i32 0, align 4
@rb_eRuntimeError = external global i64, align 8
@.str.228 = private unnamed_addr constant [76 x i8] c"can't handle UID while evaluating block given to Process::UID.switch method\00", align 1

; Function Attrs: nounwind sspstrong uwtable
define internal void @check_uid_switch() #0 {
  %1 = load i32, ptr @under_uid_switch, align 4, !tbaa !34
  %2 = icmp ne i32 %1, 0
  br i1 %2, label %3, label %5

3:                                                ; preds = %0
  %4 = load i64, ptr @rb_eRuntimeError, align 8, !tbaa !35
  call void (i64, ptr, ...) @rb_raise(i64 noundef %4, ptr noundef @.str.228) #30
  unreachable

5:                                                ; preds = %0
  ret void
}

; Function Attrs: nounwind sspstrong uwtable
define internal i64 @p_sys_setresuid(i64 noundef %0, i64 noundef %1, i64 noundef %2, i64 noundef %3) #0 {
  %5 = alloca i64, align 8
  %6 = alloca i64, align 8
  %7 = alloca i64, align 8
  %8 = alloca i64, align 8
  %9 = alloca i32, align 4
  %10 = alloca i32, align 4
  %11 = alloca i32, align 4
  %12 = alloca i64, align 8
  %13 = alloca i32, align 4
  store i64 %0, ptr %5, align 8, !tbaa !35
  store i64 %1, ptr %6, align 8, !tbaa !35
  store i64 %2, ptr %7, align 8, !tbaa !35
  store i64 %3, ptr %8, align 8, !tbaa !35
  call void @llvm.lifetime.start.p0(i64 4, ptr %9) #27
  call void @llvm.lifetime.start.p0(i64 4, ptr %10) #27
  call void @llvm.lifetime.start.p0(i64 4, ptr %11) #27
  call void @llvm.lifetime.start.p0(i64 8, ptr %12) #27
  store i64 0, ptr %12, align 8, !tbaa !35
  call void @check_uid_switch()
  %14 = load i64, ptr %6, align 8, !tbaa !35
  %15 = call i32 @obj2uid(i64 noundef %14, ptr noundef %12)
  store i32 %15, ptr %9, align 4, !tbaa !34
  %16 = load i64, ptr %7, align 8, !tbaa !35
  %17 = call i32 @obj2uid(i64 noundef %16, ptr noundef %12)
  store i32 %17, ptr %10, align 4, !tbaa !34
  %18 = load i64, ptr %8, align 8, !tbaa !35
  %19 = call i32 @obj2uid(i64 noundef %18, ptr noundef %12)
  store i32 %19, ptr %11, align 4, !tbaa !34
  %20 = load i64, ptr %12, align 8, !tbaa !35
  %21 = icmp ne i64 %20, 0
  br i1 %21, label %22, label %25

22:                                               ; preds = %4
  %23 = load i64, ptr %12, align 8, !tbaa !35
  %24 = call i64 @rb_str_resize(i64 noundef %23, i64 noundef 0)
  br label %26

25:                                               ; preds = %4
  br label %26

26:                                               ; preds = %25, %22
  %27 = load i32, ptr %9, align 4, !tbaa !34
  %28 = load i32, ptr %10, align 4, !tbaa !34
  %29 = load i32, ptr %11, align 4, !tbaa !34
  %30 = call i32 @setresuid(i32 noundef %27, i32 noundef %28, i32 noundef %29) #27
  %31 = icmp ne i32 %30, 0
  br i1 %31, label %32, label %39

32:                                               ; preds = %26
  br label %33

33:                                               ; preds = %32
  call void @llvm.lifetime.start.p0(i64 4, ptr %13) #27
  %34 = call ptr @rb_errno_ptr()
  %35 = load i32, ptr %34, align 4, !tbaa !34
  store i32 %35, ptr %13, align 4, !tbaa !34
  %36 = load i32, ptr %13, align 4, !tbaa !34
  call void @rb_syserr_fail(i32 noundef %36, ptr noundef null) #30
  unreachable

37:                                               ; No predecessors!
  br label %38

38:                                               ; preds = %37
  br label %39

39:                                               ; preds = %38, %26
  call void @llvm.lifetime.end.p0(i64 8, ptr %12) #27
  call void @llvm.lifetime.end.p0(i64 4, ptr %11) #27
  call void @llvm.lifetime.end.p0(i64 4, ptr %10) #27
  call void @llvm.lifetime.end.p0(i64 4, ptr %9) #27
  ret i64 4
}