; Function Attrs: nounwind sspstrong uwtable
define internal noundef i64 @p_sys_setresuid(i64 %0, i64 noundef %1, i64 noundef %2, i64 noundef %3) #1 {
  %5 = alloca i64, align 8
  call void @llvm.lifetime.start.p0(i64 8, ptr nonnull %5) #27
  store i64 0, ptr %5, align 8, !tbaa !43
  %.b.i = load i1, ptr @under_uid_switch, align 4
  br i1 %.b.i, label %6, label %check_uid_switch.exit

6:                                                ; preds = %4
  %7 = load i64, ptr @rb_eRuntimeError, align 8, !tbaa !43
  tail call void (i64, ptr, ...) @rb_raise(i64 noundef %7, ptr noundef nonnull @.str.228) #29
  unreachable

check_uid_switch.exit:                            ; preds = %4
  %8 = call fastcc i32 @obj2uid(i64 noundef %1, ptr noundef %5)
  %9 = call fastcc i32 @obj2uid(i64 noundef %2, ptr noundef %5)
  %10 = call fastcc i32 @obj2uid(i64 noundef %3, ptr noundef %5)
  %11 = load i64, ptr %5, align 8, !tbaa !43
  %.not = icmp eq i64 %11, 0
  br i1 %.not, label %14, label %12

12:                                               ; preds = %check_uid_switch.exit
  %13 = tail call i64 @rb_str_resize(i64 noundef %11, i64 noundef 0) #27
  br label %14

14:                                               ; preds = %check_uid_switch.exit, %12
  %15 = tail call i32 @setresuid(i32 noundef %8, i32 noundef %9, i32 noundef %10) #27
  %.not7 = icmp eq i32 %15, 0
  br i1 %.not7, label %19, label %16

16:                                               ; preds = %14
  %17 = tail call ptr @rb_errno_ptr() #27
  %18 = load i32, ptr %17, align 4, !tbaa !60
  tail call void @rb_syserr_fail(i32 noundef %18, ptr noundef null) #29
  unreachable

19:                                               ; preds = %14
  call void @llvm.lifetime.end.p0(i64 8, ptr nonnull %5) #27
  ret i64 4
}